; Function Attrs: nounwind uwtable
define internal noundef i32 @pop3_disconnect(ptr noundef %0, ptr noundef %1, i1 noundef zeroext %2) #0 {
  br i1 %2, label %pop3_perform_quit.exit, label %4

4:                                                ; preds = %3
  %5 = getelementptr inbounds nuw i8, ptr %1, i64 952
  %6 = load i64, ptr %5, align 8
  %7 = and i64 %6, 8192
  %.not = icmp eq i64 %7, 0
  br i1 %.not, label %pop3_perform_quit.exit, label %8

8:                                                ; preds = %4
  %9 = getelementptr inbounds nuw i8, ptr %1, i64 1088
  %10 = tail call i32 (ptr, ptr, ptr, ...) @Curl_pp_sendf(ptr noundef %0, ptr noundef nonnull %9, ptr noundef nonnull @.str.2, ptr noundef nonnull @.str.37) #6
  %.not.i = icmp eq i32 %10, 0
  br i1 %.not.i, label %11, label %pop3_perform_quit.exit

11:                                               ; preds = %8
  %12 = getelementptr i8, ptr %0, i64 24
  %.val.i = load ptr, ptr %12, align 8, !tbaa !83
  %13 = getelementptr inbounds nuw i8, ptr %.val.i, i64 1248
  store i32 10, ptr %13, align 8, !tbaa !86
  %14 = getelementptr inbounds nuw i8, ptr %1, i64 1248
  %15 = load i32, ptr %14, align 8, !tbaa !86
  %.not6.i = icmp eq i32 %15, 0
  br i1 %.not6.i, label %pop3_perform_quit.exit, label %.lr.ph.i

.lr.ph.i:                                         ; preds = %11, %.lr.ph.i
  %16 = tail call i32 @Curl_pp_statemach(ptr noundef %0, ptr noundef nonnull %9, i1 noundef zeroext true, i1 noundef zeroext true) #6
  %17 = load i32, ptr %14, align 8, !tbaa !86
  %18 = icmp ne i32 %17, 0
  %.not.i12 = icmp eq i32 %16, 0
  %19 = select i1 %18, i1 %.not.i12, i1 false
  br i1 %19, label %.lr.ph.i, label %pop3_perform_quit.exit, !llvm.loop !115

pop3_perform_quit.exit:                           ; preds = %.lr.ph.i, %11, %8, %4, %3
  %20 = getelementptr inbounds nuw i8, ptr %1, i64 1088
  %21 = tail call i32 @Curl_pp_disconnect(ptr noundef nonnull %20) #6
  %22 = getelementptr inbounds nuw i8, ptr %1, i64 1300
  %23 = load i16, ptr %22, align 4, !tbaa !116
  tail call void @Curl_sasl_cleanup(ptr noundef %1, i16 noundef zeroext %23) #6
  %24 = load ptr, ptr @Curl_cfree, align 8, !tbaa !3
  %25 = getelementptr inbounds nuw i8, ptr %1, i64 1304
  %26 = load ptr, ptr %25, align 8, !tbaa !117
  tail call void %24(ptr noundef %26) #6
  store ptr null, ptr %25, align 8, !tbaa !117
  ret i32 0
}